target datalayout = "e-m:e-p270:32:32-p271:32:32-p272:64:64-i64:64-i128:128-f80:128-n8:16:32:64-S128"
target triple = "x86_64-pc-linux-gnu"

%class.Node = type <{ ptr, ptr, ptr, i32, i32, i32, i32, i32, i32, i32, [4 x i8] }>

; Function Attrs: mustprogress nounwind uwtable
define linkonce_odr hidden noundef zeroext i1 @_ZNK4Node20is_predicated_vectorEv(ptr noundef nonnull align 8 dereferenceable(52) %0) #1 comdat align 2 {
  %2 = alloca ptr, align 8
  store ptr %0, ptr %2, align 8
  %3 = load ptr, ptr %2, align 8
  %4 = getelementptr inbounds %class.Node, ptr %3, i32 0, i32 9
  %5 = load i32, ptr %4, align 8
  %6 = and i32 %5, 16384
  %7 = icmp ne i32 %6, 0
  ret i1 %7
}

; Function Attrs: mustprogress nounwind uwtable
define linkonce_odr hidden noundef ptr @_ZNK4Node2inEj(ptr noundef nonnull align 8 dereferenceable(52) %0, i32 noundef %1) #1 comdat align 2 {
  %3 = alloca ptr, align 8
  %4 = alloca i32, align 4
  store ptr %0, ptr %3, align 8
  store i32 %1, ptr %4, align 4
  %5 = load ptr, ptr %3, align 8
  %6 = getelementptr inbounds %class.Node, ptr %5, i32 0, i32 1
  %7 = load ptr, ptr %6, align 8
  %8 = load i32, ptr %4, align 4
  %9 = zext i32 %8 to i64
  %10 = getelementptr inbounds ptr, ptr %7, i64 %9
  %11 = load ptr, ptr %10, align 8
  ret ptr %11
}

; Function Attrs: mustprogress nounwind uwtable
define internal noundef ptr @_ZL26redundant_logical_identityP4Node(ptr noundef %0) #1 {
  %2 = alloca ptr, align 8
  %3 = alloca ptr, align 8
  %4 = alloca ptr, align 8
  %5 = alloca ptr, align 8
  store ptr %0, ptr %3, align 8
  %6 = load ptr, ptr %3, align 8
  %7 = call noundef ptr @_ZNK4Node2inEj(ptr noundef nonnull align 8 dereferenceable(52) %6, i32 noundef 1)
  store ptr %7, ptr %4, align 8
  %8 = load ptr, ptr %3, align 8
  %9 = load ptr, ptr %8, align 8
  %10 = getelementptr inbounds ptr, ptr %9, i64 0
  %11 = load ptr, ptr %10, align 8
  %12 = call noundef i32 %11(ptr noundef nonnull align 8 dereferenceable(52) %8)
  %13 = load ptr, ptr %4, align 8
  %14 = load ptr, ptr %13, align 8
  %15 = getelementptr inbounds ptr, ptr %14, i64 0
  %16 = load ptr, ptr %15, align 8
  %17 = call noundef i32 %16(ptr noundef nonnull align 8 dereferenceable(52) %13)
  %18 = icmp eq i32 %12, %17
  br i1 %18, label %19, label %52

19:                                               ; preds = %1
  %20 = load ptr, ptr %3, align 8
  %21 = call noundef zeroext i1 @_ZNK4Node20is_predicated_vectorEv(ptr noundef nonnull align 8 dereferenceable(52) %20)
  br i1 %21, label %25, label %22

22:                                               ; preds = %19
  %23 = load ptr, ptr %4, align 8
  %24 = call noundef zeroext i1 @_ZNK4Node20is_predicated_vectorEv(ptr noundef nonnull align 8 dereferenceable(52) %23)
  br i1 %24, label %25, label %37

25:                                               ; preds = %22, %19
  %26 = load ptr, ptr %3, align 8
  %27 = call noundef zeroext i1 @_ZNK4Node20is_predicated_vectorEv(ptr noundef nonnull align 8 dereferenceable(52) %26)
  br i1 %27, label %28, label %51

28:                                               ; preds = %25
  %29 = load ptr, ptr %4, align 8
  %30 = call noundef zeroext i1 @_ZNK4Node20is_predicated_vectorEv(ptr noundef nonnull align 8 dereferenceable(52) %29)
  br i1 %30, label %31, label %51

31:                                               ; preds = %28
  %32 = load ptr, ptr %3, align 8
  %33 = call noundef ptr @_ZNK4Node2inEj(ptr noundef nonnull align 8 dereferenceable(52) %32, i32 noundef 3)
  %34 = load ptr, ptr %4, align 8
  %35 = call noundef ptr @_ZNK4Node2inEj(ptr noundef nonnull align 8 dereferenceable(52) %34, i32 noundef 3)
  %36 = icmp eq ptr %33, %35
  br i1 %36, label %37, label %51

37:                                               ; preds = %31, %22
  %38 = load ptr, ptr %3, align 8
  %39 = call noundef ptr @_ZNK4Node2inEj(ptr noundef nonnull align 8 dereferenceable(52) %38, i32 noundef 2)
  %40 = load ptr, ptr %4, align 8
  %41 = call noundef ptr @_ZNK4Node2inEj(ptr noundef nonnull align 8 dereferenceable(52) %40, i32 noundef 1)
  %42 = icmp eq ptr %39, %41
  br i1 %42, label %49, label %43

43:                                               ; preds = %37
  %44 = load ptr, ptr %3, align 8
  %45 = call noundef ptr @_ZNK4Node2inEj(ptr noundef nonnull align 8 dereferenceable(52) %44, i32 noundef 2)
  %46 = load ptr, ptr %4, align 8
  %47 = call noundef ptr @_ZNK4Node2inEj(ptr noundef nonnull align 8 dereferenceable(52) %46, i32 noundef 2)
  %48 = icmp eq ptr %45, %47
  br i1 %48, label %49, label %51

49:                                               ; preds = %43, %37
  %50 = load ptr, ptr %4, align 8
  store ptr %50, ptr %2, align 8
  br label %107

51:                                               ; preds = %43, %31, %28, %25
  br label %52

52:                                               ; preds = %51, %1
  %53 = load ptr, ptr %3, align 8
  %54 = call noundef ptr @_ZNK4Node2inEj(ptr noundef nonnull align 8 dereferenceable(52) %53, i32 noundef 2)
  store ptr %54, ptr %5, align 8
  %55 = load ptr, ptr %3, align 8
  %56 = load ptr, ptr %55, align 8
  %57 = getelementptr inbounds ptr, ptr %56, i64 0
  %58 = load ptr, ptr %57, align 8
  %59 = call noundef i32 %58(ptr noundef nonnull align 8 dereferenceable(52) %55)
  %60 = load ptr, ptr %5, align 8
  %61 = load ptr, ptr %60, align 8
  %62 = getelementptr inbounds ptr, ptr %61, i64 0
  %63 = load ptr, ptr %62, align 8
  %64 = call noundef i32 %63(ptr noundef nonnull align 8 dereferenceable(52) %60)
  %65 = icmp eq i32 %59, %64
  br i1 %65, label %66, label %105

66:                                               ; preds = %52
  %67 = load ptr, ptr %3, align 8
  %68 = call noundef zeroext i1 @_ZNK4Node20is_predicated_vectorEv(ptr noundef nonnull align 8 dereferenceable(52) %67)
  br i1 %68, label %84, label %69

69:                                               ; preds = %66
  %70 = load ptr, ptr %5, align 8
  %71 = call noundef zeroext i1 @_ZNK4Node20is_predicated_vectorEv(ptr noundef nonnull align 8 dereferenceable(52) %70)
  br i1 %71, label %84, label %72

72:                                               ; preds = %69
  %73 = load ptr, ptr %3, align 8
  %74 = call noundef ptr @_ZNK4Node2inEj(ptr noundef nonnull align 8 dereferenceable(52) %73, i32 noundef 1)
  %75 = load ptr, ptr %5, align 8
  %76 = call noundef ptr @_ZNK4Node2inEj(ptr noundef nonnull align 8 dereferenceable(52) %75, i32 noundef 1)
  %77 = icmp eq ptr %74, %76
  br i1 %77, label %102, label %78

78:                                               ; preds = %72
  %79 = load ptr, ptr %3, align 8
  %80 = call noundef ptr @_ZNK4Node2inEj(ptr noundef nonnull align 8 dereferenceable(52) %79, i32 noundef 1)
  %81 = load ptr, ptr %5, align 8
  %82 = call noundef ptr @_ZNK4Node2inEj(ptr noundef nonnull align 8 dereferenceable(52) %81, i32 noundef 2)
  %83 = icmp eq ptr %80, %82
  br i1 %83, label %102, label %84

84:                                               ; preds = %78, %69, %66
  %85 = load ptr, ptr %3, align 8
  %86 = call noundef zeroext i1 @_ZNK4Node20is_predicated_vectorEv(ptr noundef nonnull align 8 dereferenceable(52) %85)
  br i1 %86, label %87, label %104

87:                                               ; preds = %84
  %88 = load ptr, ptr %5, align 8
  %89 = call noundef zeroext i1 @_ZNK4Node20is_predicated_vectorEv(ptr noundef nonnull align 8 dereferenceable(52) %88)
  br i1 %89, label %90, label %104

90:                                               ; preds = %87
  %91 = load ptr, ptr %3, align 8
  %92 = call noundef ptr @_ZNK4Node2inEj(ptr noundef nonnull align 8 dereferenceable(52) %91, i32 noundef 3)
  %93 = load ptr, ptr %5, align 8
  %94 = call noundef ptr @_ZNK4Node2inEj(ptr noundef nonnull align 8 dereferenceable(52) %93, i32 noundef 3)
  %95 = icmp eq ptr %92, %94
  br i1 %95, label %96, label %104

96:                                               ; preds = %90
  %97 = load ptr, ptr %3, align 8
  %98 = call noundef ptr @_ZNK4Node2inEj(ptr noundef nonnull align 8 dereferenceable(52) %97, i32 noundef 1)
  %99 = load ptr, ptr %5, align 8
  %100 = call noundef ptr @_ZNK4Node2inEj(ptr noundef nonnull align 8 dereferenceable(52) %99, i32 noundef 1)
  %101 = icmp eq ptr %98, %100
  br i1 %101, label %102, label %104

102:                                              ; preds = %96, %78, %72
  %103 = load ptr, ptr %5, align 8
  store ptr %103, ptr %2, align 8
  br label %107

104:                                              ; preds = %96, %90, %87, %84
  br label %105

105:                                              ; preds = %104, %52
  %106 = load ptr, ptr %3, align 8
  store ptr %106, ptr %2, align 8
  br label %107

107:                                              ; preds = %105, %102, %49
  %108 = load ptr, ptr %2, align 8
  ret ptr %108
}