; Function Attrs: mustprogress nounwind uwtable
define internal fastcc noundef ptr @_ZL26redundant_logical_identityP4Node(ptr noundef %0) unnamed_addr #1 {
  %2 = getelementptr inbounds i8, ptr %0, i64 8
  %3 = load ptr, ptr %2, align 8
  %4 = getelementptr inbounds i8, ptr %3, i64 8
  %5 = load ptr, ptr %4, align 8
  %6 = load ptr, ptr %0, align 8
  %7 = load ptr, ptr %6, align 8
  %8 = tail call noundef i32 %7(ptr noundef nonnull align 8 dereferenceable(52) %0) #8
  %9 = load ptr, ptr %5, align 8
  %10 = load ptr, ptr %9, align 8
  %11 = tail call noundef i32 %10(ptr noundef nonnull align 8 dereferenceable(52) %5) #8
  %12 = icmp eq i32 %8, %11
  br i1 %12, label %13, label %._crit_edge39

._crit_edge39:                                    ; preds = %1
  %.pre40 = load ptr, ptr %2, align 8
  br label %41

13:                                               ; preds = %1
  %14 = getelementptr inbounds i8, ptr %0, i64 48
  %15 = load i32, ptr %14, align 8
  %16 = and i32 %15, 16384
  %.not = icmp eq i32 %16, 0
  %17 = getelementptr inbounds i8, ptr %5, i64 48
  %18 = load i32, ptr %17, align 8
  %19 = and i32 %18, 16384
  %.not33 = icmp eq i32 %19, 0
  %.pre41 = load ptr, ptr %2, align 8
  br i1 %.not, label %20, label %21

20:                                               ; preds = %13
  br i1 %.not33, label %._crit_edge, label %41

._crit_edge:                                      ; preds = %20
  %.phi.trans.insert = getelementptr inbounds i8, ptr %5, i64 8
  %.pre38 = load ptr, ptr %.phi.trans.insert, align 8
  br label %30

21:                                               ; preds = %13
  br i1 %.not33, label %41, label %22

22:                                               ; preds = %21
  %23 = getelementptr inbounds i8, ptr %.pre41, i64 24
  %24 = load ptr, ptr %23, align 8
  %25 = getelementptr inbounds i8, ptr %5, i64 8
  %26 = load ptr, ptr %25, align 8
  %27 = getelementptr inbounds i8, ptr %26, i64 24
  %28 = load ptr, ptr %27, align 8
  %29 = icmp eq ptr %24, %28
  br i1 %29, label %30, label %41

30:                                               ; preds = %._crit_edge, %22
  %31 = phi ptr [ %.pre38, %._crit_edge ], [ %26, %22 ]
  %32 = getelementptr inbounds i8, ptr %.pre41, i64 16
  %33 = load ptr, ptr %32, align 8
  %34 = getelementptr inbounds i8, ptr %31, i64 8
  %35 = load ptr, ptr %34, align 8
  %36 = icmp eq ptr %33, %35
  br i1 %36, label %89, label %37

37:                                               ; preds = %30
  %38 = getelementptr inbounds i8, ptr %31, i64 16
  %39 = load ptr, ptr %38, align 8
  %40 = icmp eq ptr %33, %39
  br i1 %40, label %89, label %41

41:                                               ; preds = %._crit_edge39, %20, %21, %22, %37
  %42 = phi ptr [ %.pre40, %._crit_edge39 ], [ %.pre41, %20 ], [ %.pre41, %21 ], [ %.pre41, %22 ], [ %.pre41, %37 ]
  %43 = getelementptr inbounds i8, ptr %42, i64 16
  %44 = load ptr, ptr %43, align 8
  %45 = load ptr, ptr %0, align 8
  %46 = load ptr, ptr %45, align 8
  %47 = tail call noundef i32 %46(ptr noundef nonnull align 8 dereferenceable(52) %0) #8
  %48 = load ptr, ptr %44, align 8
  %49 = load ptr, ptr %48, align 8
  %50 = tail call noundef i32 %49(ptr noundef nonnull align 8 dereferenceable(52) %44) #8
  %51 = icmp eq i32 %47, %50
  br i1 %51, label %52, label %.thread32

52:                                               ; preds = %41
  %53 = getelementptr inbounds i8, ptr %0, i64 48
  %54 = load i32, ptr %53, align 8
  %55 = and i32 %54, 16384
  %.not35 = icmp eq i32 %55, 0
  %56 = getelementptr inbounds i8, ptr %44, i64 48
  %57 = load i32, ptr %56, align 8
  %58 = and i32 %57, 16384
  %.not36 = icmp eq i32 %58, 0
  br i1 %.not35, label %59, label %73

59:                                               ; preds = %52
  br i1 %.not36, label %60, label %.thread32

60:                                               ; preds = %59
  %61 = load ptr, ptr %2, align 8
  %62 = getelementptr inbounds i8, ptr %61, i64 8
  %63 = load ptr, ptr %62, align 8
  %64 = getelementptr inbounds i8, ptr %44, i64 8
  %65 = load ptr, ptr %64, align 8
  %66 = getelementptr inbounds i8, ptr %65, i64 8
  %67 = load ptr, ptr %66, align 8
  %68 = icmp eq ptr %63, %67
  br i1 %68, label %89, label %69

69:                                               ; preds = %60
  %70 = getelementptr inbounds i8, ptr %65, i64 16
  %71 = load ptr, ptr %70, align 8
  %72 = icmp eq ptr %63, %71
  br i1 %72, label %89, label %.thread32

73:                                               ; preds = %52
  br i1 %.not36, label %.thread32, label %74

74:                                               ; preds = %73
  %75 = load ptr, ptr %2, align 8
  %76 = getelementptr inbounds i8, ptr %75, i64 24
  %77 = load ptr, ptr %76, align 8
  %78 = getelementptr inbounds i8, ptr %44, i64 8
  %79 = load ptr, ptr %78, align 8
  %80 = getelementptr inbounds i8, ptr %79, i64 24
  %81 = load ptr, ptr %80, align 8
  %82 = icmp eq ptr %77, %81
  br i1 %82, label %83, label %.thread32

83:                                               ; preds = %74
  %84 = getelementptr inbounds i8, ptr %75, i64 8
  %85 = load ptr, ptr %84, align 8
  %86 = getelementptr inbounds i8, ptr %79, i64 8
  %87 = load ptr, ptr %86, align 8
  %88 = icmp eq ptr %85, %87
  br i1 %88, label %89, label %.thread32

.thread32:                                        ; preds = %59, %69, %73, %74, %83, %41
  br label %89

89:                                               ; preds = %60, %69, %83, %30, %37, %.thread32
  %.0 = phi ptr [ %0, %.thread32 ], [ %5, %37 ], [ %5, %30 ], [ %44, %83 ], [ %44, %69 ], [ %44, %60 ]
  ret ptr %.0
}